target datalayout = "e-m:e-p270:32:32-p271:32:32-p272:64:64-i64:64-i128:128-f80:128-n8:16:32:64-S128"
target triple = "x86_64-pc-linux-gnu"

%struct.TBMIterator = type { i8, %union.anon }
%union.anon = type { ptr }

; Function Attrs: nounwind uwtable
define dso_local ptr @tbm_iterate(ptr noundef %0) #0 {
  %2 = alloca ptr, align 8
  %3 = alloca ptr, align 8
  store ptr %0, ptr %3, align 8
  %4 = load ptr, ptr %3, align 8
  %5 = getelementptr inbounds nuw %struct.TBMIterator, ptr %4, i32 0, i32 0
  %6 = load i8, ptr %5, align 8, !range !4, !noundef !5
  %7 = trunc i8 %6 to i1
  br i1 %7, label %8, label %13

8:                                                ; preds = %1
  %9 = load ptr, ptr %3, align 8
  %10 = getelementptr inbounds nuw %struct.TBMIterator, ptr %9, i32 0, i32 1
  %11 = load ptr, ptr %10, align 8
  %12 = call ptr @tbm_shared_iterate(ptr noundef %11)
  store ptr %12, ptr %2, align 8
  br label %18

13:                                               ; preds = %1
  %14 = load ptr, ptr %3, align 8
  %15 = getelementptr inbounds nuw %struct.TBMIterator, ptr %14, i32 0, i32 1
  %16 = load ptr, ptr %15, align 8
  %17 = call ptr @tbm_private_iterate(ptr noundef %16)
  store ptr %17, ptr %2, align 8
  br label %18

18:                                               ; preds = %13, %8
  %19 = load ptr, ptr %2, align 8
  ret ptr %19
}