; Function Attrs: nounwind uwtable
define dso_local ptr @tbm_iterate(ptr noundef readonly captures(none) %0) local_unnamed_addr #0 {
  %2 = load i8, ptr %0, align 8, !range !4, !noundef !5
  %3 = trunc nuw i8 %2 to i1
  %4 = getelementptr inbounds nuw i8, ptr %0, i64 8
  %5 = load ptr, ptr %4, align 8
  br i1 %3, label %6, label %8

6:                                                ; preds = %1
  %7 = tail call ptr @tbm_shared_iterate(ptr noundef %5)
  br label %10

8:                                                ; preds = %1
  %9 = tail call ptr @tbm_private_iterate(ptr noundef %5)
  br label %10

10:                                               ; preds = %8, %6
  %.0 = phi ptr [ %7, %6 ], [ %9, %8 ]
  ret ptr %.0
}